target datalayout = "e-m:e-p270:32:32-p271:32:32-p272:64:64-i64:64-i128:128-f80:128-n8:16:32:64-S128"
target triple = "x86_64-unknown-linux-gnu"

%class.ref_vector = type { %class.ref_vector_core }
%class.ref_vector_core = type { %class.ref_manager_wrapper, %class.ptr_vector.27 }
%class.ref_manager_wrapper = type { ptr }
%class.ptr_vector.27 = type { %class.vector.28 }
%class.vector.28 = type { ptr }
%class.ast = type { i32, i24, i32, i32 }
%class.svector.17 = type { %class.vector.18 }
%class.vector.18 = type { ptr }
%class.obj_ref = type { ptr, ptr }
%class.ref_vector_core.53 = type { %class.ref_manager_wrapper.54, %class.ptr_vector.55 }
%class.ref_manager_wrapper.54 = type { ptr }
%class.ptr_vector.55 = type { %class.vector.56 }
%class.vector.56 = type { ptr }
%class.arith_util = type { ptr, ptr }
%struct.mk_pp = type { %struct.mk_ismt2_pp }
%struct.mk_ismt2_pp = type { ptr, ptr, %class.params_ref, ptr, i32, i32, ptr }
%class.params_ref = type { ptr }
%class.ref_vector.52 = type { %class.ref_vector_core.53 }
%"struct.spacer::mk_epp" = type { %struct.mk_pp, %class.params_ref, %class.obj_ref }
%"struct.spacer::adhoc_rewriter_rpp" = type { ptr, %class.arith_util }
%class.rewriter_tpl = type { %class.rewriter_core, ptr, i32, %class.ptr_vector.27, %class.var_shifter, %class.inv_var_shifter, %class.obj_ref, %class.obj_ref.158, %class.obj_ref.158, %class.svector.17 }
%class.rewriter_core = type { ptr, ptr, i8, i8, %class.ptr_vector.146, ptr, %class.svector.148, %class.ref_vector, %class.ptr_vector.146, ptr, %class.ref_vector.52, %class.obj_hashtable.150, ptr, i32, %class.svector.156 }
%class.svector.148 = type { %class.vector.149 }
%class.vector.149 = type { ptr }
%class.ptr_vector.146 = type { %class.vector.147 }
%class.vector.147 = type { ptr }
%class.obj_hashtable.150 = type { %class.core_hashtable.base.154, [4 x i8] }
%class.core_hashtable.base.154 = type <{ ptr, i32, i32, i32 }>
%class.svector.156 = type { %class.vector.157 }
%class.vector.157 = type { ptr }
%class.var_shifter = type <{ %class.var_shifter_core, i32, i32, i32, [4 x i8] }>
%class.var_shifter_core = type { %class.rewriter_core }
%class.inv_var_shifter = type <{ %class.var_shifter_core, i32, [4 x i8] }>
%class.obj_ref.158 = type { ptr, ptr }

@.str.17 = private unnamed_addr constant [15 x i8] c"min_alias_size\00", align 1
@.str.18 = private unnamed_addr constant [10 x i8] c"max_depth\00", align 1
@_ZN12rewriter_tplIN6spacer18adhoc_rewriter_rppEEC1ER11ast_managerbRS1_ = weak_odr hidden unnamed_addr alias void (ptr, ptr, i1, ptr), ptr @_ZN12rewriter_tplIN6spacer18adhoc_rewriter_rppEEC2ER11ast_managerbRS1_
@_ZN12rewriter_tplIN6spacer18adhoc_rewriter_rppEED1Ev = weak_odr hidden unnamed_addr alias void (ptr), ptr @_ZN12rewriter_tplIN6spacer18adhoc_rewriter_rppEED2Ev

; Function Attrs: mustprogress nounwind uwtable
define linkonce_odr hidden noundef i32 @_ZNK3ast8get_kindEv(ptr noundef nonnull align 4 dereferenceable(16) %this) #5 comdat align 2 {
entry:
  %this.addr = alloca ptr, align 8
  store ptr %this, ptr %this.addr, align 8
  %this1 = load ptr, ptr %this.addr, align 8
  %m_kind = getelementptr inbounds %class.ast, ptr %this1, i32 0, i32 1
  %bf.load = load i32, ptr %m_kind, align 4
  %bf.clear = and i32 %bf.load, 65535
  ret i32 %bf.clear
}

; Function Attrs: mustprogress nounwind uwtable
define linkonce_odr hidden void @_ZN11mk_ismt2_ppD2Ev(ptr noundef nonnull align 8 dereferenceable(48) %this) unnamed_addr #5 comdat align 2 {
entry:
  %this.addr = alloca ptr, align 8
  store ptr %this, ptr %this.addr, align 8
  %this1 = load ptr, ptr %this.addr, align 8
  %m_empty = getelementptr inbounds %struct.mk_ismt2_pp, ptr %this1, i32 0, i32 2
  call void @_ZN10params_refD1Ev(ptr noundef nonnull align 8 dereferenceable(8) %m_empty) #3
  ret void
}

; Function Attrs: mustprogress uwtable
define weak_odr hidden void @_ZN12rewriter_tplIN6spacer18adhoc_rewriter_rppEEclEP4exprR7obj_refIS3_11ast_managerE(ptr noundef nonnull align 8 dereferenceable(536) %this, ptr noundef %t, ptr noundef nonnull align 8 dereferenceable(16) %result) #4 comdat align 2 {
entry:
  %this.addr = alloca ptr, align 8
  %t.addr = alloca ptr, align 8
  %result.addr = alloca ptr, align 8
  store ptr %this, ptr %this.addr, align 8
  store ptr %t, ptr %t.addr, align 8
  store ptr %result, ptr %result.addr, align 8
  %this1 = load ptr, ptr %this.addr, align 8
  %0 = load ptr, ptr %t.addr, align 8
  %1 = load ptr, ptr %result.addr, align 8
  %m_pr = getelementptr inbounds %class.rewriter_tpl, ptr %this1, i32 0, i32 7
  call void @_ZN12rewriter_tplIN6spacer18adhoc_rewriter_rppEEclEP4exprR7obj_refIS3_11ast_managerERS5_I3appS6_E(ptr noundef nonnull align 8 dereferenceable(536) %this1, ptr noundef %0, ptr noundef nonnull align 8 dereferenceable(16) %1, ptr noundef nonnull align 8 dereferenceable(16) %m_pr)
  ret void
}

; Function Attrs: mustprogress uwtable
define linkonce_odr hidden void @_ZN6spacer18adhoc_rewriter_rppC2ER11ast_manager(ptr noundef nonnull align 8 dereferenceable(24) %this, ptr noundef nonnull align 8 dereferenceable(976) %manager) unnamed_addr #4 comdat align 2 {
entry:
  %this.addr = alloca ptr, align 8
  %manager.addr = alloca ptr, align 8
  store ptr %this, ptr %this.addr, align 8
  store ptr %manager, ptr %manager.addr, align 8
  %this1 = load ptr, ptr %this.addr, align 8
  %m = getelementptr inbounds %"struct.spacer::adhoc_rewriter_rpp", ptr %this1, i32 0, i32 0
  %0 = load ptr, ptr %manager.addr, align 8
  store ptr %0, ptr %m, align 8
  %m_arith = getelementptr inbounds %"struct.spacer::adhoc_rewriter_rpp", ptr %this1, i32 0, i32 1
  %m2 = getelementptr inbounds %"struct.spacer::adhoc_rewriter_rpp", ptr %this1, i32 0, i32 0
  %1 = load ptr, ptr %m2, align 8
  call void @_ZN10arith_utilC1ER11ast_manager(ptr noundef nonnull align 8 dereferenceable(16) %m_arith, ptr noundef nonnull align 8 dereferenceable(976) %1)
  ret void
}

; Function Attrs: mustprogress nounwind uwtable
define linkonce_odr hidden noundef nonnull align 8 dereferenceable(976) ptr @_ZNK7obj_refI4expr11ast_managerE1mEv(ptr noundef nonnull align 8 dereferenceable(16) %this) #5 comdat align 2 {
entry:
  %this.addr = alloca ptr, align 8
  store ptr %this, ptr %this.addr, align 8
  %this1 = load ptr, ptr %this.addr, align 8
  %m_manager = getelementptr inbounds %class.obj_ref, ptr %this1, i32 0, i32 1
  %0 = load ptr, ptr %m_manager, align 8
  ret ptr %0
}

; Function Attrs: mustprogress nounwind uwtable
define linkonce_odr hidden noundef zeroext i1 @_Z7is_declPK3ast(ptr noundef %n) #5 comdat {
entry:
  %n.addr = alloca ptr, align 8
  %k = alloca i32, align 4
  store ptr %n, ptr %n.addr, align 8
  %0 = load ptr, ptr %n.addr, align 8
  %call = call noundef i32 @_ZNK3ast8get_kindEv(ptr noundef nonnull align 4 dereferenceable(16) %0)
  store i32 %call, ptr %k, align 4
  %1 = load i32, ptr %k, align 4
  %cmp = icmp eq i32 %1, 4
  br i1 %cmp, label %lor.end, label %lor.rhs

lor.rhs:                                          ; preds = %entry
  %2 = load i32, ptr %k, align 4
  %cmp1 = icmp eq i32 %2, 3
  br label %lor.end

lor.end:                                          ; preds = %lor.rhs, %entry
  %3 = phi i1 [ true, %entry ], [ %cmp1, %lor.rhs ]
  ret i1 %3
}

; Function Attrs: mustprogress nounwind uwtable
define linkonce_odr hidden void @_ZN5mk_ppD2Ev(ptr noundef nonnull align 8 dereferenceable(48) %this) unnamed_addr #5 comdat align 2 {
entry:
  %this.addr = alloca ptr, align 8
  store ptr %this, ptr %this.addr, align 8
  %this1 = load ptr, ptr %this.addr, align 8
  call void @_ZN11mk_ismt2_ppD2Ev(ptr noundef nonnull align 8 dereferenceable(48) %this1) #3
  ret void
}

; Function Attrs: mustprogress nounwind uwtable
define linkonce_odr hidden noundef ptr @_ZNK7obj_refI4expr11ast_managerEcvPS0_Ev(ptr noundef nonnull align 8 dereferenceable(16) %this) #5 comdat align 2 {
entry:
  %this.addr = alloca ptr, align 8
  store ptr %this, ptr %this.addr, align 8
  %this1 = load ptr, ptr %this.addr, align 8
  %m_obj = getelementptr inbounds %class.obj_ref, ptr %this1, i32 0, i32 0
  %0 = load ptr, ptr %m_obj, align 8
  ret ptr %0
}

; Function Attrs: mustprogress uwtable
define hidden void @_ZN6spacer6mk_epp2rwEP4exprR7obj_refIS1_11ast_managerE(ptr noundef nonnull align 8 dereferenceable(72) %this, ptr noundef %e, ptr noundef nonnull align 8 dereferenceable(16) %out) #4 align 2 personality ptr @__gxx_personality_v0 {
entry:
  %this.addr = alloca ptr, align 8
  %e.addr = alloca ptr, align 8
  %out.addr = alloca ptr, align 8
  %cfg = alloca %"struct.spacer::adhoc_rewriter_rpp", align 8
  %arw = alloca %class.rewriter_tpl, align 8
  %exn.slot = alloca ptr, align 8
  %ehselector.slot = alloca i32, align 4
  store ptr %this, ptr %this.addr, align 8
  store ptr %e, ptr %e.addr, align 8
  store ptr %out, ptr %out.addr, align 8
  %0 = load ptr, ptr %out.addr, align 8
  %call = call noundef nonnull align 8 dereferenceable(976) ptr @_ZNK7obj_refI4expr11ast_managerE1mEv(ptr noundef nonnull align 8 dereferenceable(16) %0)
  call void @_ZN6spacer18adhoc_rewriter_rppC2ER11ast_manager(ptr noundef nonnull align 8 dereferenceable(24) %cfg, ptr noundef nonnull align 8 dereferenceable(976) %call)
  %1 = load ptr, ptr %out.addr, align 8
  %call2 = call noundef nonnull align 8 dereferenceable(976) ptr @_ZNK7obj_refI4expr11ast_managerE1mEv(ptr noundef nonnull align 8 dereferenceable(16) %1)
  call void @_ZN12rewriter_tplIN6spacer18adhoc_rewriter_rppEEC1ER11ast_managerbRS1_(ptr noundef nonnull align 8 dereferenceable(536) %arw, ptr noundef nonnull align 8 dereferenceable(976) %call2, i1 noundef zeroext false, ptr noundef nonnull align 8 dereferenceable(24) %cfg)
  %2 = load ptr, ptr %e.addr, align 8
  %3 = load ptr, ptr %out.addr, align 8
  invoke void @_ZN12rewriter_tplIN6spacer18adhoc_rewriter_rppEEclEP4exprR7obj_refIS3_11ast_managerE(ptr noundef nonnull align 8 dereferenceable(536) %arw, ptr noundef %2, ptr noundef nonnull align 8 dereferenceable(16) %3)
          to label %invoke.cont unwind label %lpad

invoke.cont:                                      ; preds = %entry
  call void @_ZN12rewriter_tplIN6spacer18adhoc_rewriter_rppEED1Ev(ptr noundef nonnull align 8 dereferenceable(536) %arw) #3
  ret void

lpad:                                             ; preds = %entry
  %4 = landingpad { ptr, i32 }
          cleanup
  %5 = extractvalue { ptr, i32 } %4, 0
  store ptr %5, ptr %exn.slot, align 8
  %6 = extractvalue { ptr, i32 } %4, 1
  store i32 %6, ptr %ehselector.slot, align 4
  call void @_ZN12rewriter_tplIN6spacer18adhoc_rewriter_rppEED1Ev(ptr noundef nonnull align 8 dereferenceable(536) %arw) #3
  br label %eh.resume

eh.resume:                                        ; preds = %lpad
  %exn = load ptr, ptr %exn.slot, align 8
  %sel = load i32, ptr %ehselector.slot, align 4
  %lpad.val = insertvalue { ptr, i32 } poison, ptr %exn, 0
  %lpad.val3 = insertvalue { ptr, i32 } %lpad.val, i32 %sel, 1
  resume { ptr, i32 } %lpad.val3
}

; Function Attrs: mustprogress nounwind uwtable
define linkonce_odr hidden noundef ptr @_Z7to_exprP3ast(ptr noundef %n) #5 comdat {
entry:
  %n.addr = alloca ptr, align 8
  store ptr %n, ptr %n.addr, align 8
  %0 = load ptr, ptr %n.addr, align 8
  ret ptr %0
}

; Function Attrs: mustprogress uwtable
define linkonce_odr hidden noundef zeroext i1 @_Z7is_exprPK3ast(ptr noundef %n) #4 comdat {
entry:
  %n.addr = alloca ptr, align 8
  store ptr %n, ptr %n.addr, align 8
  %0 = load ptr, ptr %n.addr, align 8
  %call = call noundef zeroext i1 @_Z7is_declPK3ast(ptr noundef %0)
  %lnot = xor i1 %call, true
  ret i1 %lnot
}

; Function Attrs: mustprogress nounwind uwtable
define linkonce_odr hidden void @_ZN7obj_refI4expr11ast_managerEC2ERS1_(ptr noundef nonnull align 8 dereferenceable(16) %this, ptr noundef nonnull align 8 dereferenceable(976) %m) unnamed_addr #5 comdat align 2 {
entry:
  %this.addr = alloca ptr, align 8
  %m.addr = alloca ptr, align 8
  store ptr %this, ptr %this.addr, align 8
  store ptr %m, ptr %m.addr, align 8
  %this1 = load ptr, ptr %this.addr, align 8
  %m_obj = getelementptr inbounds %class.obj_ref, ptr %this1, i32 0, i32 0
  store ptr null, ptr %m_obj, align 8
  %m_manager = getelementptr inbounds %class.obj_ref, ptr %this1, i32 0, i32 1
  %0 = load ptr, ptr %m.addr, align 8
  store ptr %0, ptr %m_manager, align 8
  ret void
}

; Function Attrs: mustprogress nounwind uwtable
define linkonce_odr hidden void @_ZN10params_refC2Ev(ptr noundef nonnull align 8 dereferenceable(8) %this) unnamed_addr #5 comdat align 2 {
entry:
  %this.addr = alloca ptr, align 8
  store ptr %this, ptr %this.addr, align 8
  %this1 = load ptr, ptr %this.addr, align 8
  %m_params = getelementptr inbounds %class.params_ref, ptr %this1, i32 0, i32 0
  store ptr null, ptr %m_params, align 8
  ret void
}

; Function Attrs: mustprogress uwtable
define linkonce_odr hidden void @_ZN5mk_ppC2EP3astR11ast_managerRK10params_refjjPKc(ptr noundef nonnull align 8 dereferenceable(48) %this, ptr noundef %t, ptr noundef nonnull align 8 dereferenceable(976) %m, ptr noundef nonnull align 8 dereferenceable(8) %p, i32 noundef %indent, i32 noundef %num_vars, ptr noundef %var_prefix) unnamed_addr #4 comdat align 2 {
entry:
  %this.addr = alloca ptr, align 8
  %t.addr = alloca ptr, align 8
  %m.addr = alloca ptr, align 8
  %p.addr = alloca ptr, align 8
  %indent.addr = alloca i32, align 4
  %num_vars.addr = alloca i32, align 4
  %var_prefix.addr = alloca ptr, align 8
  store ptr %this, ptr %this.addr, align 8
  store ptr %t, ptr %t.addr, align 8
  store ptr %m, ptr %m.addr, align 8
  store ptr %p, ptr %p.addr, align 8
  store i32 %indent, ptr %indent.addr, align 4
  store i32 %num_vars, ptr %num_vars.addr, align 4
  store ptr %var_prefix, ptr %var_prefix.addr, align 8
  %this1 = load ptr, ptr %this.addr, align 8
  %0 = load ptr, ptr %t.addr, align 8
  %1 = load ptr, ptr %m.addr, align 8
  %2 = load ptr, ptr %p.addr, align 8
  %3 = load i32, ptr %indent.addr, align 4
  %4 = load i32, ptr %num_vars.addr, align 4
  %5 = load ptr, ptr %var_prefix.addr, align 8
  call void @_ZN11mk_ismt2_ppC2EP3astR11ast_managerRK10params_refjjPKc(ptr noundef nonnull align 8 dereferenceable(48) %this1, ptr noundef %0, ptr noundef nonnull align 8 dereferenceable(976) %1, ptr noundef nonnull align 8 dereferenceable(8) %2, i32 noundef %3, i32 noundef %4, ptr noundef %5)
  ret void
}

; Function Attrs: mustprogress uwtable
define hidden void @_ZN6spacer6mk_eppC2EP3astR11ast_managerjjPKc(ptr noundef nonnull align 8 dereferenceable(72) %this, ptr noundef %t, ptr noundef nonnull align 8 dereferenceable(976) %m, i32 noundef %indent, i32 noundef %num_vars, ptr noundef %var_prefix) unnamed_addr #4 align 2 personality ptr @__gxx_personality_v0 {
entry:
  %this.addr = alloca ptr, align 8
  %t.addr = alloca ptr, align 8
  %m.addr = alloca ptr, align 8
  %indent.addr = alloca i32, align 4
  %num_vars.addr = alloca i32, align 4
  %var_prefix.addr = alloca ptr, align 8
  %exn.slot = alloca ptr, align 8
  %ehselector.slot = alloca i32, align 4
  store ptr %this, ptr %this.addr, align 8
  store ptr %t, ptr %t.addr, align 8
  store ptr %m, ptr %m.addr, align 8
  store i32 %indent, ptr %indent.addr, align 4
  store i32 %num_vars, ptr %num_vars.addr, align 4
  store ptr %var_prefix, ptr %var_prefix.addr, align 8
  %this1 = load ptr, ptr %this.addr, align 8
  %0 = load ptr, ptr %t.addr, align 8
  %1 = load ptr, ptr %m.addr, align 8
  %m_epp_params = getelementptr inbounds %"struct.spacer::mk_epp", ptr %this1, i32 0, i32 1
  %2 = load i32, ptr %indent.addr, align 4
  %3 = load i32, ptr %num_vars.addr, align 4
  %4 = load ptr, ptr %var_prefix.addr, align 8
  call void @_ZN5mk_ppC2EP3astR11ast_managerRK10params_refjjPKc(ptr noundef nonnull align 8 dereferenceable(48) %this1, ptr noundef %0, ptr noundef nonnull align 8 dereferenceable(976) %1, ptr noundef nonnull align 8 dereferenceable(8) %m_epp_params, i32 noundef %2, i32 noundef %3, ptr noundef %4)
  %m_epp_params2 = getelementptr inbounds %"struct.spacer::mk_epp", ptr %this1, i32 0, i32 1
  invoke void @_ZN10params_refC2Ev(ptr noundef nonnull align 8 dereferenceable(8) %m_epp_params2)
          to label %invoke.cont unwind label %lpad

invoke.cont:                                      ; preds = %entry
  %m_epp_expr = getelementptr inbounds %"struct.spacer::mk_epp", ptr %this1, i32 0, i32 2
  %5 = load ptr, ptr %m.addr, align 8
  invoke void @_ZN7obj_refI4expr11ast_managerEC2ERS1_(ptr noundef nonnull align 8 dereferenceable(16) %m_epp_expr, ptr noundef nonnull align 8 dereferenceable(976) %5)
          to label %invoke.cont4 unwind label %lpad3

invoke.cont4:                                     ; preds = %invoke.cont
  %m_epp_params5 = getelementptr inbounds %"struct.spacer::mk_epp", ptr %this1, i32 0, i32 1
  invoke void @_ZN10params_ref8set_uintEPKcj(ptr noundef nonnull align 8 dereferenceable(8) %m_epp_params5, ptr noundef @.str.17, i32 noundef -1)
          to label %invoke.cont7 unwind label %lpad6

invoke.cont7:                                     ; preds = %invoke.cont4
  %m_epp_params8 = getelementptr inbounds %"struct.spacer::mk_epp", ptr %this1, i32 0, i32 1
  invoke void @_ZN10params_ref8set_uintEPKcj(ptr noundef nonnull align 8 dereferenceable(8) %m_epp_params8, ptr noundef @.str.18, i32 noundef -1)
          to label %invoke.cont9 unwind label %lpad6

invoke.cont9:                                     ; preds = %invoke.cont7
  %m_ast = getelementptr inbounds %struct.mk_ismt2_pp, ptr %this1, i32 0, i32 0
  %6 = load ptr, ptr %m_ast, align 8
  %call = invoke noundef zeroext i1 @_Z7is_exprPK3ast(ptr noundef %6)
          to label %invoke.cont10 unwind label %lpad6

invoke.cont10:                                    ; preds = %invoke.cont9
  br i1 %call, label %if.then, label %if.end

if.then:                                          ; preds = %invoke.cont10
  %m_ast11 = getelementptr inbounds %struct.mk_ismt2_pp, ptr %this1, i32 0, i32 0
  %7 = load ptr, ptr %m_ast11, align 8
  %call13 = invoke noundef ptr @_Z7to_exprP3ast(ptr noundef %7)
          to label %invoke.cont12 unwind label %lpad6

invoke.cont12:                                    ; preds = %if.then
  %m_epp_expr14 = getelementptr inbounds %"struct.spacer::mk_epp", ptr %this1, i32 0, i32 2
  invoke void @_ZN6spacer6mk_epp2rwEP4exprR7obj_refIS1_11ast_managerE(ptr noundef nonnull align 8 dereferenceable(72) %this1, ptr noundef %call13, ptr noundef nonnull align 8 dereferenceable(16) %m_epp_expr14)
          to label %invoke.cont15 unwind label %lpad6

invoke.cont15:                                    ; preds = %invoke.cont12
  %m_epp_expr16 = getelementptr inbounds %"struct.spacer::mk_epp", ptr %this1, i32 0, i32 2
  %call18 = invoke noundef ptr @_ZNK7obj_refI4expr11ast_managerEcvPS0_Ev(ptr noundef nonnull align 8 dereferenceable(16) %m_epp_expr16)
          to label %invoke.cont17 unwind label %lpad6

invoke.cont17:                                    ; preds = %invoke.cont15
  %m_ast19 = getelementptr inbounds %struct.mk_ismt2_pp, ptr %this1, i32 0, i32 0
  store ptr %call18, ptr %m_ast19, align 8
  br label %if.end

lpad:                                             ; preds = %entry
  %8 = landingpad { ptr, i32 }
          cleanup
  %9 = extractvalue { ptr, i32 } %8, 0
  store ptr %9, ptr %exn.slot, align 8
  %10 = extractvalue { ptr, i32 } %8, 1
  store i32 %10, ptr %ehselector.slot, align 4
  br label %ehcleanup20

lpad3:                                            ; preds = %invoke.cont
  %11 = landingpad { ptr, i32 }
          cleanup
  %12 = extractvalue { ptr, i32 } %11, 0
  store ptr %12, ptr %exn.slot, align 8
  %13 = extractvalue { ptr, i32 } %11, 1
  store i32 %13, ptr %ehselector.slot, align 4
  br label %ehcleanup

lpad6:                                            ; preds = %invoke.cont15, %invoke.cont12, %if.then, %invoke.cont9, %invoke.cont7, %invoke.cont4
  %14 = landingpad { ptr, i32 }
          cleanup
  %15 = extractvalue { ptr, i32 } %14, 0
  store ptr %15, ptr %exn.slot, align 8
  %16 = extractvalue { ptr, i32 } %14, 1
  store i32 %16, ptr %ehselector.slot, align 4
  call void @_ZN7obj_refI4expr11ast_managerED2Ev(ptr noundef nonnull align 8 dereferenceable(16) %m_epp_expr) #3
  br label %ehcleanup

if.end:                                           ; preds = %invoke.cont17, %invoke.cont10
  ret void

ehcleanup:                                        ; preds = %lpad6, %lpad3
  call void @_ZN10params_refD1Ev(ptr noundef nonnull align 8 dereferenceable(8) %m_epp_params2) #3
  br label %ehcleanup20

ehcleanup20:                                      ; preds = %ehcleanup, %lpad
  call void @_ZN5mk_ppD2Ev(ptr noundef nonnull align 8 dereferenceable(48) %this1) #3
  br label %eh.resume

eh.resume:                                        ; preds = %ehcleanup20
  %exn = load ptr, ptr %exn.slot, align 8
  %sel = load i32, ptr %ehselector.slot, align 4
  %lpad.val = insertvalue { ptr, i32 } poison, ptr %exn, 0
  %lpad.val21 = insertvalue { ptr, i32 } %lpad.val, i32 %sel, 1
  resume { ptr, i32 } %lpad.val21
}