; Function Attrs: mustprogress uwtable
define hidden void @_ZN6spacer6mk_eppC2EP3astR11ast_managerjjPKc(ptr noundef nonnull align 8 dereferenceable(72) %this, ptr noundef %t, ptr noundef nonnull align 8 dereferenceable(976) %m, i32 noundef %indent, i32 noundef %num_vars, ptr noundef %var_prefix) unnamed_addr #3 align 2 personality ptr @__gxx_personality_v0 {
entry:
  %cfg.i = alloca %"struct.spacer::adhoc_rewriter_rpp", align 8
  %arw.i = alloca %class.rewriter_tpl, align 8
  %m_epp_params = getelementptr inbounds i8, ptr %this, i64 48
  tail call void @_ZN11mk_ismt2_ppC2EP3astR11ast_managerRK10params_refjjPKc(ptr noundef nonnull align 8 dereferenceable(48) %this, ptr noundef %t, ptr noundef nonnull align 8 dereferenceable(976) %m, ptr noundef nonnull align 8 dereferenceable(8) %m_epp_params, i32 noundef %indent, i32 noundef %num_vars, ptr noundef %var_prefix)
  %m_epp_expr = getelementptr inbounds i8, ptr %this, i64 56
  %m_manager.i = getelementptr inbounds i8, ptr %this, i64 64
  tail call void @llvm.memset.p0.i64(ptr noundef nonnull align 8 dereferenceable(16) %m_epp_params, i8 0, i64 16, i1 false)
  store ptr %m, ptr %m_manager.i, align 8
  invoke void @_ZN10params_ref8set_uintEPKcj(ptr noundef nonnull align 8 dereferenceable(8) %m_epp_params, ptr noundef nonnull @.str.17, i32 noundef -1)
          to label %invoke.cont7 unwind label %lpad6

invoke.cont7:                                     ; preds = %entry
  invoke void @_ZN10params_ref8set_uintEPKcj(ptr noundef nonnull align 8 dereferenceable(8) %m_epp_params, ptr noundef nonnull @.str.18, i32 noundef -1)
          to label %invoke.cont10 unwind label %lpad6

invoke.cont10:                                    ; preds = %invoke.cont7
  %0 = load ptr, ptr %this, align 8
  %m_kind.i.i.i = getelementptr inbounds i8, ptr %0, i64 4
  %bf.load.i.i.i = load i32, ptr %m_kind.i.i.i, align 4
  %bf.clear.i.i.i = and i32 %bf.load.i.i.i, 65535
  %1 = add nsw i32 %bf.clear.i.i.i, -5
  %2 = icmp ult i32 %1, -2
  br i1 %2, label %if.then, label %if.end

if.then:                                          ; preds = %invoke.cont10
  call void @llvm.lifetime.start.p0(i64 24, ptr nonnull %cfg.i)
  call void @llvm.lifetime.start.p0(i64 536, ptr nonnull %arw.i)
  %3 = load ptr, ptr %m_manager.i, align 8
  store ptr %3, ptr %cfg.i, align 8
  %m_arith.i.i = getelementptr inbounds i8, ptr %cfg.i, i64 8
  invoke void @_ZN10arith_utilC1ER11ast_manager(ptr noundef nonnull align 8 dereferenceable(16) %m_arith.i.i, ptr noundef nonnull align 8 dereferenceable(976) %3)
          to label %.noexc unwind label %lpad6

.noexc:                                           ; preds = %if.then
  %4 = load ptr, ptr %m_manager.i, align 8
  invoke void @_ZN12rewriter_tplIN6spacer18adhoc_rewriter_rppEEC2ER11ast_managerbRS1_(ptr noundef nonnull align 8 dereferenceable(536) %arw.i, ptr noundef nonnull align 8 dereferenceable(976) %4, i1 noundef zeroext false, ptr noundef nonnull align 8 dereferenceable(24) %cfg.i)
          to label %.noexc2 unwind label %lpad6

.noexc2:                                          ; preds = %.noexc
  %m_pr.i.i = getelementptr inbounds i8, ptr %arw.i, i64 496
  invoke void @_ZN12rewriter_tplIN6spacer18adhoc_rewriter_rppEEclEP4exprR7obj_refIS3_11ast_managerERS5_I3appS6_E(ptr noundef nonnull align 8 dereferenceable(536) %arw.i, ptr noundef nonnull %0, ptr noundef nonnull align 8 dereferenceable(16) %m_epp_expr, ptr noundef nonnull align 8 dereferenceable(16) %m_pr.i.i)
          to label %invoke.cont15 unwind label %lpad.i

lpad.i:                                           ; preds = %.noexc2
  %5 = landingpad { ptr, i32 }
          cleanup
  call void @_ZN12rewriter_tplIN6spacer18adhoc_rewriter_rppEED2Ev(ptr noundef nonnull align 8 dereferenceable(536) %arw.i) #20
  br label %lpad6.body

invoke.cont15:                                    ; preds = %.noexc2
  call void @_ZN12rewriter_tplIN6spacer18adhoc_rewriter_rppEED2Ev(ptr noundef nonnull align 8 dereferenceable(536) %arw.i) #20
  call void @llvm.lifetime.end.p0(i64 24, ptr nonnull %cfg.i)
  call void @llvm.lifetime.end.p0(i64 536, ptr nonnull %arw.i)
  %6 = load ptr, ptr %m_epp_expr, align 8
  store ptr %6, ptr %this, align 8
  br label %if.end

lpad6:                                            ; preds = %.noexc, %if.then, %invoke.cont7, %entry
  %7 = landingpad { ptr, i32 }
          cleanup
  br label %lpad6.body

lpad6.body:                                       ; preds = %lpad.i, %lpad6
  %eh.lpad-body = phi { ptr, i32 } [ %7, %lpad6 ], [ %5, %lpad.i ]
  call void @_ZN7obj_refI4expr11ast_managerED2Ev(ptr noundef nonnull align 8 dereferenceable(16) %m_epp_expr) #20
  call void @_ZN10params_refD1Ev(ptr noundef nonnull align 8 dereferenceable(8) %m_epp_params) #20
  %m_empty.i.i = getelementptr inbounds i8, ptr %this, i64 16
  call void @_ZN10params_refD1Ev(ptr noundef nonnull align 8 dereferenceable(8) %m_empty.i.i) #20
  resume { ptr, i32 } %eh.lpad-body

if.end:                                           ; preds = %invoke.cont15, %invoke.cont10
  ret void
}